target datalayout = "e-m:e-p270:32:32-p271:32:32-p272:64:64-i64:64-i128:128-f80:128-n8:16:32:64-S128"
target triple = "x86_64-unknown-linux-gnu"

%"class.google::protobuf::internal::ExtensionSet" = type { ptr, i16, i16, %"union.google::protobuf::internal::ExtensionSet::AllocatedData" }
%"union.google::protobuf::internal::ExtensionSet::AllocatedData" = type { ptr }
%"class.absl::lts_20230802::log_internal::NullStream" = type { i8 }
%"struct.google::protobuf::internal::ExtensionSet::Extension" = type { %union.anon, i8, i8, i8, i8, i32, ptr }
%union.anon = type { i64 }
%"class.google::protobuf::FieldDescriptor" = type { %"class.google::protobuf::internal::SymbolBase", i8, i8, i8, i32, ptr, ptr, ptr, ptr, %union.anon.0, %union.anon.1, ptr, ptr, ptr, %union.anon.2 }
%"class.google::protobuf::internal::SymbolBase" = type { i8 }
%union.anon.0 = type { ptr }
%union.anon.1 = type { ptr }
%union.anon.2 = type { i64 }

; Function Attrs: mustprogress uwtable
define linkonce_odr hidden noundef ptr @_ZNK6google8protobuf11MessageLite3NewEv(ptr noundef nonnull align 8 dereferenceable(16) %this) #4 comdat align 2 {
entry:
  %this.addr = alloca ptr, align 8
  store ptr %this, ptr %this.addr, align 8
  %this1 = load ptr, ptr %this.addr, align 8
  %vtable = load ptr, ptr %this1, align 8
  %vfn = getelementptr inbounds ptr, ptr %vtable, i64 2
  %0 = load ptr, ptr %vfn, align 8
  %call = call noundef ptr %0(ptr noundef nonnull align 8 dereferenceable(16) %this1, ptr noundef null)
  ret ptr %call
}

; Function Attrs: mustprogress nounwind uwtable
define linkonce_odr hidden noundef nonnull align 1 dereferenceable(1) ptr @_ZN4absl12lts_2023080212log_internal10NullStream14InternalStreamEv(ptr noundef nonnull align 1 dereferenceable(1) %this) #5 comdat align 2 {
entry:
  %this.addr = alloca ptr, align 8
  store ptr %this, ptr %this.addr, align 8
  %this1 = load ptr, ptr %this.addr, align 8
  ret ptr %this1
}

; Function Attrs: mustprogress nounwind uwtable
define linkonce_odr hidden noundef i32 @_ZNK6google8protobuf15FieldDescriptor6numberEv(ptr noundef nonnull align 8 dereferenceable(88) %this) #5 comdat align 2 {
entry:
  %this.addr = alloca ptr, align 8
  store ptr %this, ptr %this.addr, align 8
  %this1 = load ptr, ptr %this.addr, align 8
  %number_ = getelementptr inbounds %"class.google::protobuf::FieldDescriptor", ptr %this1, i32 0, i32 4
  %0 = load i32, ptr %number_, align 4
  ret i32 %0
}

; Function Attrs: mustprogress uwtable
define noundef ptr @_ZN6google8protobuf8internal12ExtensionSet14ReleaseMessageEPKNS0_15FieldDescriptorEPNS0_14MessageFactoryE(ptr noundef nonnull align 8 dereferenceable(24) %this, ptr noundef %descriptor, ptr noundef %factory) #4 align 2 {
entry:
  %retval = alloca ptr, align 8
  %this.addr = alloca ptr, align 8
  %descriptor.addr = alloca ptr, align 8
  %factory.addr = alloca ptr, align 8
  %extension = alloca ptr, align 8
  %ref.tmp = alloca %"class.absl::lts_20230802::log_internal::NullStream", align 1
  %ref.tmp6 = alloca %"class.absl::lts_20230802::log_internal::NullStream", align 1
  %ret = alloca ptr, align 8
  store ptr %this, ptr %this.addr, align 8
  store ptr %descriptor, ptr %descriptor.addr, align 8
  store ptr %factory, ptr %factory.addr, align 8
  %this1 = load ptr, ptr %this.addr, align 8
  %0 = load ptr, ptr %descriptor.addr, align 8
  %call = call noundef i32 @_ZNK6google8protobuf15FieldDescriptor6numberEv(ptr noundef nonnull align 8 dereferenceable(88) %0)
  %call2 = call noundef ptr @_ZN6google8protobuf8internal12ExtensionSet10FindOrNullEi(ptr noundef nonnull align 8 dereferenceable(24) %this1, i32 noundef %call)
  store ptr %call2, ptr %extension, align 8
  %1 = load ptr, ptr %extension, align 8
  %cmp = icmp eq ptr %1, null
  br i1 %cmp, label %if.then, label %if.else

if.then:                                          ; preds = %entry
  store ptr null, ptr %retval, align 8
  br label %return

if.else:                                          ; preds = %entry
  br label %while.cond

while.cond:                                       ; preds = %while.body, %if.else
  br i1 false, label %while.body, label %while.end

while.body:                                       ; preds = %while.cond
  %call3 = call noundef nonnull align 1 dereferenceable(1) ptr @_ZN4absl12lts_2023080212log_internal10NullStream14InternalStreamEv(ptr noundef nonnull align 1 dereferenceable(1) %ref.tmp)
  br label %while.cond, !llvm.loop !10

while.end:                                        ; preds = %while.cond
  br label %while.cond4

while.cond4:                                      ; preds = %while.body5, %while.end
  br i1 false, label %while.body5, label %while.end8

while.body5:                                      ; preds = %while.cond4
  %call7 = call noundef nonnull align 1 dereferenceable(1) ptr @_ZN4absl12lts_2023080212log_internal10NullStream14InternalStreamEv(ptr noundef nonnull align 1 dereferenceable(1) %ref.tmp6)
  br label %while.cond4, !llvm.loop !11

while.end8:                                       ; preds = %while.cond4
  store ptr null, ptr %ret, align 8
  %2 = load ptr, ptr %extension, align 8
  %is_lazy = getelementptr inbounds %"struct.google::protobuf::internal::ExtensionSet::Extension", ptr %2, i32 0, i32 3
  %bf.load = load i8, ptr %is_lazy, align 2
  %bf.lshr = lshr i8 %bf.load, 4
  %bf.cast = trunc i8 %bf.lshr to i1
  br i1 %bf.cast, label %if.then9, label %if.else20

if.then9:                                         ; preds = %while.end8
  %3 = load ptr, ptr %extension, align 8
  %4 = getelementptr inbounds %"struct.google::protobuf::internal::ExtensionSet::Extension", ptr %3, i32 0, i32 0
  %5 = load ptr, ptr %4, align 8
  %6 = load ptr, ptr %factory.addr, align 8
  %7 = load ptr, ptr %descriptor.addr, align 8
  %call10 = call noundef ptr @_ZNK6google8protobuf15FieldDescriptor12message_typeEv(ptr noundef nonnull align 8 dereferenceable(88) %7)
  %vtable = load ptr, ptr %6, align 8
  %vfn = getelementptr inbounds ptr, ptr %vtable, i64 2
  %8 = load ptr, ptr %vfn, align 8
  %call11 = call noundef ptr %8(ptr noundef nonnull align 8 dereferenceable(8) %6, ptr noundef %call10)
  %arena_ = getelementptr inbounds %"class.google::protobuf::internal::ExtensionSet", ptr %this1, i32 0, i32 0
  %9 = load ptr, ptr %arena_, align 8
  %vtable12 = load ptr, ptr %5, align 8
  %vfn13 = getelementptr inbounds ptr, ptr %vtable12, i64 7
  %10 = load ptr, ptr %vfn13, align 8
  %call14 = call noundef ptr %10(ptr noundef nonnull align 8 dereferenceable(8) %5, ptr noundef nonnull align 8 dereferenceable(16) %call11, ptr noundef %9)
  store ptr %call14, ptr %ret, align 8
  %arena_15 = getelementptr inbounds %"class.google::protobuf::internal::ExtensionSet", ptr %this1, i32 0, i32 0
  %11 = load ptr, ptr %arena_15, align 8
  %cmp16 = icmp eq ptr %11, null
  br i1 %cmp16, label %if.then17, label %if.end

if.then17:                                        ; preds = %if.then9
  %12 = load ptr, ptr %extension, align 8
  %13 = getelementptr inbounds %"struct.google::protobuf::internal::ExtensionSet::Extension", ptr %12, i32 0, i32 0
  %14 = load ptr, ptr %13, align 8
  %isnull = icmp eq ptr %14, null
  br i1 %isnull, label %delete.end, label %delete.notnull

delete.notnull:                                   ; preds = %if.then17
  %vtable18 = load ptr, ptr %14, align 8
  %vfn19 = getelementptr inbounds ptr, ptr %vtable18, i64 1
  %15 = load ptr, ptr %vfn19, align 8
  call void %15(ptr noundef nonnull align 8 dereferenceable(8) %14) #3
  br label %delete.end

delete.end:                                       ; preds = %delete.notnull, %if.then17
  br label %if.end

if.end:                                           ; preds = %delete.end, %if.then9
  br label %if.end29

if.else20:                                        ; preds = %while.end8
  %arena_21 = getelementptr inbounds %"class.google::protobuf::internal::ExtensionSet", ptr %this1, i32 0, i32 0
  %16 = load ptr, ptr %arena_21, align 8
  %cmp22 = icmp ne ptr %16, null
  br i1 %cmp22, label %if.then23, label %if.else27

if.then23:                                        ; preds = %if.else20
  %17 = load ptr, ptr %extension, align 8
  %18 = getelementptr inbounds %"struct.google::protobuf::internal::ExtensionSet::Extension", ptr %17, i32 0, i32 0
  %19 = load ptr, ptr %18, align 8
  %call24 = call noundef ptr @_ZNK6google8protobuf11MessageLite3NewEv(ptr noundef nonnull align 8 dereferenceable(16) %19)
  store ptr %call24, ptr %ret, align 8
  %20 = load ptr, ptr %ret, align 8
  %21 = load ptr, ptr %extension, align 8
  %22 = getelementptr inbounds %"struct.google::protobuf::internal::ExtensionSet::Extension", ptr %21, i32 0, i32 0
  %23 = load ptr, ptr %22, align 8
  %vtable25 = load ptr, ptr %20, align 8
  %vfn26 = getelementptr inbounds ptr, ptr %vtable25, i64 5
  %24 = load ptr, ptr %vfn26, align 8
  call void %24(ptr noundef nonnull align 8 dereferenceable(16) %20, ptr noundef nonnull align 8 dereferenceable(16) %23)
  br label %if.end28

if.else27:                                        ; preds = %if.else20
  %25 = load ptr, ptr %extension, align 8
  %26 = getelementptr inbounds %"struct.google::protobuf::internal::ExtensionSet::Extension", ptr %25, i32 0, i32 0
  %27 = load ptr, ptr %26, align 8
  store ptr %27, ptr %ret, align 8
  br label %if.end28

if.end28:                                         ; preds = %if.else27, %if.then23
  br label %if.end29

if.end29:                                         ; preds = %if.end28, %if.end
  %28 = load ptr, ptr %descriptor.addr, align 8
  %call30 = call noundef i32 @_ZNK6google8protobuf15FieldDescriptor6numberEv(ptr noundef nonnull align 8 dereferenceable(88) %28)
  call void @_ZN6google8protobuf8internal12ExtensionSet5EraseEi(ptr noundef nonnull align 8 dereferenceable(24) %this1, i32 noundef %call30)
  %29 = load ptr, ptr %ret, align 8
  store ptr %29, ptr %retval, align 8
  br label %return

return:                                           ; preds = %if.end29, %if.then
  %30 = load ptr, ptr %retval, align 8
  ret ptr %30
}