; Function Attrs: mustprogress uwtable
define noundef ptr @_ZN6google8protobuf8internal12ExtensionSet14ReleaseMessageEPKNS0_15FieldDescriptorEPNS0_14MessageFactoryE(ptr noundef nonnull align 8 dereferenceable(24) %this, ptr noundef %descriptor, ptr noundef %factory) local_unnamed_addr #3 align 2 {
entry:
  %number_.i = getelementptr inbounds nuw i8, ptr %descriptor, i64 4
  %0 = load i32, ptr %number_.i, align 4
  %call2 = tail call noundef ptr @_ZN6google8protobuf8internal12ExtensionSet10FindOrNullEi(ptr noundef nonnull align 8 dereferenceable(24) %this, i32 noundef %0)
  %cmp = icmp eq ptr %call2, null
  br i1 %cmp, label %return, label %while.end8

while.end8:                                       ; preds = %entry
  %is_lazy = getelementptr inbounds nuw i8, ptr %call2, i64 10
  %bf.load = load i8, ptr %is_lazy, align 2
  %1 = and i8 %bf.load, 16
  %bf.cast.not = icmp eq i8 %1, 0
  br i1 %bf.cast.not, label %if.else20, label %if.then9

if.then9:                                         ; preds = %while.end8
  %2 = load ptr, ptr %call2, align 8
  %call10 = tail call noundef ptr @_ZNK6google8protobuf15FieldDescriptor12message_typeEv(ptr noundef nonnull align 8 dereferenceable(88) %descriptor)
  %vtable = load ptr, ptr %factory, align 8
  %vfn = getelementptr inbounds nuw i8, ptr %vtable, i64 16
  %3 = load ptr, ptr %vfn, align 8
  %call11 = tail call noundef ptr %3(ptr noundef nonnull align 8 dereferenceable(8) %factory, ptr noundef %call10)
  %4 = load ptr, ptr %this, align 8
  %vtable12 = load ptr, ptr %2, align 8
  %vfn13 = getelementptr inbounds nuw i8, ptr %vtable12, i64 56
  %5 = load ptr, ptr %vfn13, align 8
  %call14 = tail call noundef ptr %5(ptr noundef nonnull align 8 dereferenceable(8) %2, ptr noundef nonnull align 8 dereferenceable(16) %call11, ptr noundef %4)
  %6 = load ptr, ptr %this, align 8
  %cmp16 = icmp eq ptr %6, null
  br i1 %cmp16, label %if.then17, label %if.end29

if.then17:                                        ; preds = %if.then9
  %7 = load ptr, ptr %call2, align 8
  %isnull = icmp eq ptr %7, null
  br i1 %isnull, label %if.end29, label %delete.notnull

delete.notnull:                                   ; preds = %if.then17
  %vtable18 = load ptr, ptr %7, align 8
  %vfn19 = getelementptr inbounds nuw i8, ptr %vtable18, i64 8
  %8 = load ptr, ptr %vfn19, align 8
  tail call void %8(ptr noundef nonnull align 8 dereferenceable(8) %7) #18
  br label %if.end29

if.else20:                                        ; preds = %while.end8
  %9 = load ptr, ptr %this, align 8
  %cmp22.not = icmp eq ptr %9, null
  %10 = load ptr, ptr %call2, align 8
  br i1 %cmp22.not, label %if.end29, label %if.then23

if.then23:                                        ; preds = %if.else20
  %vtable.i = load ptr, ptr %10, align 8
  %vfn.i = getelementptr inbounds nuw i8, ptr %vtable.i, i64 16
  %11 = load ptr, ptr %vfn.i, align 8
  %call.i = tail call noundef ptr %11(ptr noundef nonnull align 8 dereferenceable(16) %10, ptr noundef null)
  %12 = load ptr, ptr %call2, align 8
  %vtable25 = load ptr, ptr %call.i, align 8
  %vfn26 = getelementptr inbounds nuw i8, ptr %vtable25, i64 40
  %13 = load ptr, ptr %vfn26, align 8
  tail call void %13(ptr noundef nonnull align 8 dereferenceable(16) %call.i, ptr noundef nonnull align 8 dereferenceable(16) %12)
  br label %if.end29

if.end29:                                         ; preds = %if.else20, %if.then23, %if.then9, %delete.notnull, %if.then17
  %ret.0 = phi ptr [ %call14, %if.then17 ], [ %call14, %delete.notnull ], [ %call14, %if.then9 ], [ %call.i, %if.then23 ], [ %10, %if.else20 ]
  %14 = load i32, ptr %number_.i, align 4
  tail call void @_ZN6google8protobuf8internal12ExtensionSet5EraseEi(ptr noundef nonnull align 8 dereferenceable(24) %this, i32 noundef %14)
  br label %return

return:                                           ; preds = %entry, %if.end29
  %retval.0 = phi ptr [ %ret.0, %if.end29 ], [ null, %entry ]
  ret ptr %retval.0
}